; Function Attrs: mustprogress nofree norecurse nosync nounwind willreturn memory(argmem: readwrite) uwtable
define dso_local void @_ZNK4i18n12phonenumbers11UnicodeText3endEv(ptr dead_on_unwind noalias writable writeonly sret(%"class.i18n::phonenumbers::UnicodeText::const_iterator") align 8 captures(none) initializes((0, 8)) %0, ptr noundef nonnull readonly align 8 captures(none) dereferenceable(24) %1) local_unnamed_addr #10 align 2 {
  %3 = load ptr, ptr %1, align 8, !tbaa !44
  %4 = getelementptr inbounds nuw i8, ptr %1, i64 8
  %5 = load i32, ptr %4, align 8, !tbaa !46
  %6 = sext i32 %5 to i64
  %7 = getelementptr inbounds i8, ptr %3, i64 %6
  store ptr %7, ptr %0, align 8, !tbaa !4
  ret void
}